target datalayout = "e-m:e-p270:32:32-p271:32:32-p272:64:64-i64:64-i128:128-f80:128-n8:16:32:64-S128"
target triple = "x86_64-pc-linux-gnu"

%struct.CVodeMemRec = type { ptr, double, ptr, ptr, i32, i32, double, double, ptr, i32, i32, ptr, ptr, i32, i32, ptr, i32, i32, double, double, ptr, i32, i32, i32, i32, ptr, ptr, ptr, i32, i32, ptr, ptr, ptr, i32, double, i32, i32, double, ptr, ptr, ptr, i32, ptr, ptr, i32, i32, i32, double, ptr, ptr, ptr, [13 x ptr], ptr, ptr, ptr, ptr, ptr, ptr, ptr, ptr, ptr, [13 x ptr], ptr, ptr, ptr, ptr, [13 x ptr], ptr, ptr, ptr, ptr, ptr, i32, [13 x ptr], ptr, ptr, ptr, ptr, ptr, i32, i32, double, i32, i32, i32, i32, i32, double, double, double, double, double, double, double, double, [14 x double], [6 x double], [13 x double], double, double, double, double, double, double, double, double, i32, double, double, i32, double, double, ptr, i32, i64, i32, i32, i32, double, double, double, double, double, double, double, double, double, double, double, double, i64, i32, i64, i64, i64, i64, i64, i64, i64, i64, i64, ptr, i64, i64, ptr, i64, i64, ptr, i64, i64, i64, i64, i64, i64, i32, double, double, double, i64, i64, i64, i64, i64, i64, ptr, i32, ptr, i32, ptr, i32, ptr, i32, i32, i64, i32, ptr, i32, ptr, ptr, ptr, ptr, ptr, ptr, i32, i32, ptr, ptr, ptr, ptr, ptr, i64, double, i32, i32, i64, double, double, double, i32, i32, double, i32, i32, i32, i32, i32, i32, i32, i32, i32, i32, i32, i32, i32, i32, i32, i32, ptr, i64, i32, [6 x [4 x double]], i32, i64, ptr, i32, ptr, ptr, double, double, double, ptr, ptr, ptr, double, double, i32, i32, i64, ptr, i32, ptr, i32, i32, [13 x double], ptr, ptr, ptr, i32, ptr, i32 }

@.str = private unnamed_addr constant [115 x i8] c"generated/home/dtcxzyw/WorkSpace/Projects/compilers/llvm-opt-benchmark/bench/sundials/sundials/src/cvodes/cvodes.c\00", align 1
@.str.4 = private unnamed_addr constant [26 x i8] c"cvode_mem = NULL illegal.\00", align 1
@.str.14 = private unnamed_addr constant [38 x i8] c"Quadrature integration not activated.\00", align 1
@.str.60 = private unnamed_addr constant [20 x i8] c"dky = NULL illegal.\00", align 1
@.str.61 = private unnamed_addr constant [21 x i8] c"Illegal value for k.\00", align 1
@.str.62 = private unnamed_addr constant [75 x i8] c"Illegal value for t.t = %lg is not between tcur - hu = %lg and tcur = %lg.\00", align 1
@__func__.CVodeGetQuadDky = private unnamed_addr constant [16 x i8] c"CVodeGetQuadDky\00", align 1

; Function Attrs: nounwind uwtable
define i32 @CVodeGetQuadDky(ptr noundef %0, double noundef %1, i32 noundef %2, ptr noundef %3) #0 {
  %5 = alloca i32, align 4
  %6 = alloca ptr, align 8
  %7 = alloca double, align 8
  %8 = alloca i32, align 4
  %9 = alloca ptr, align 8
  %10 = alloca double, align 8
  %11 = alloca double, align 8
  %12 = alloca double, align 8
  %13 = alloca double, align 8
  %14 = alloca double, align 8
  %15 = alloca i32, align 4
  %16 = alloca i32, align 4
  %17 = alloca i32, align 4
  %18 = alloca i32, align 4
  %19 = alloca ptr, align 8
  %20 = alloca i32, align 4
  store ptr %0, ptr %6, align 8, !tbaa !153
  store double %1, ptr %7, align 8, !tbaa !150
  store i32 %2, ptr %8, align 4, !tbaa !3
  store ptr %3, ptr %9, align 8, !tbaa !151
  call void @llvm.lifetime.start.p0(i64 8, ptr %10) #10
  call void @llvm.lifetime.start.p0(i64 8, ptr %11) #10
  call void @llvm.lifetime.start.p0(i64 8, ptr %12) #10
  call void @llvm.lifetime.start.p0(i64 8, ptr %13) #10
  call void @llvm.lifetime.start.p0(i64 8, ptr %14) #10
  call void @llvm.lifetime.start.p0(i64 4, ptr %15) #10
  call void @llvm.lifetime.start.p0(i64 4, ptr %16) #10
  call void @llvm.lifetime.start.p0(i64 4, ptr %17) #10
  call void @llvm.lifetime.start.p0(i64 4, ptr %18) #10
  call void @llvm.lifetime.start.p0(i64 8, ptr %19) #10
  %21 = load ptr, ptr %6, align 8, !tbaa !153
  %22 = icmp eq ptr %21, null
  br i1 %22, label %23, label %24

23:                                               ; preds = %4
  call void (ptr, i32, i32, ptr, ptr, ptr, ...) @cvProcessError(ptr noundef null, i32 noundef -21, i32 noundef 3875, ptr noundef @__func__.CVodeGetQuadDky, ptr noundef @.str, ptr noundef @.str.4)
  store i32 -21, ptr %5, align 4
  store i32 1, ptr %20, align 4
  br label %206

24:                                               ; preds = %4
  %25 = load ptr, ptr %6, align 8, !tbaa !153
  store ptr %25, ptr %19, align 8, !tbaa !10
  %26 = load ptr, ptr %19, align 8, !tbaa !10
  %27 = getelementptr inbounds nuw %struct.CVodeMemRec, ptr %26, i32 0, i32 14
  %28 = load i32, ptr %27, align 4, !tbaa !75
  %29 = icmp ne i32 %28, 1
  br i1 %29, label %30, label %32

30:                                               ; preds = %24
  %31 = load ptr, ptr %19, align 8, !tbaa !10
  call void (ptr, i32, i32, ptr, ptr, ptr, ...) @cvProcessError(ptr noundef %31, i32 noundef -30, i32 noundef 3884, ptr noundef @__func__.CVodeGetQuadDky, ptr noundef @.str, ptr noundef @.str.14)
  store i32 -30, ptr %5, align 4
  store i32 1, ptr %20, align 4
  br label %206

32:                                               ; preds = %24
  %33 = load ptr, ptr %9, align 8, !tbaa !151
  %34 = icmp eq ptr %33, null
  br i1 %34, label %35, label %37

35:                                               ; preds = %32
  %36 = load ptr, ptr %19, align 8, !tbaa !10
  call void (ptr, i32, i32, ptr, ptr, ptr, ...) @cvProcessError(ptr noundef %36, i32 noundef -26, i32 noundef 3892, ptr noundef @__func__.CVodeGetQuadDky, ptr noundef @.str, ptr noundef @.str.60)
  store i32 -26, ptr %5, align 4
  store i32 1, ptr %20, align 4
  br label %206

37:                                               ; preds = %32
  %38 = load i32, ptr %8, align 4, !tbaa !3
  %39 = icmp slt i32 %38, 0
  br i1 %39, label %46, label %40

40:                                               ; preds = %37
  %41 = load i32, ptr %8, align 4, !tbaa !3
  %42 = load ptr, ptr %19, align 8, !tbaa !10
  %43 = getelementptr inbounds nuw %struct.CVodeMemRec, ptr %42, i32 0, i32 82
  %44 = load i32, ptr %43, align 8, !tbaa !169
  %45 = icmp sgt i32 %41, %44
  br i1 %45, label %46, label %48

46:                                               ; preds = %40, %37
  %47 = load ptr, ptr %19, align 8, !tbaa !10
  call void (ptr, i32, i32, ptr, ptr, ptr, ...) @cvProcessError(ptr noundef %47, i32 noundef -24, i32 noundef 3900, ptr noundef @__func__.CVodeGetQuadDky, ptr noundef @.str, ptr noundef @.str.61)
  store i32 -24, ptr %5, align 4
  store i32 1, ptr %20, align 4
  br label %206

48:                                               ; preds = %40
  %49 = load ptr, ptr %19, align 8, !tbaa !10
  %50 = getelementptr inbounds nuw %struct.CVodeMemRec, ptr %49, i32 0, i32 1
  %51 = load double, ptr %50, align 8, !tbaa !25
  %52 = fmul double 1.000000e+02, %51
  %53 = load ptr, ptr %19, align 8, !tbaa !10
  %54 = getelementptr inbounds nuw %struct.CVodeMemRec, ptr %53, i32 0, i32 93
  %55 = load double, ptr %54, align 8, !tbaa !167
  %56 = call double @llvm.fabs.f64(double %55)
  %57 = load ptr, ptr %19, align 8, !tbaa !10
  %58 = getelementptr inbounds nuw %struct.CVodeMemRec, ptr %57, i32 0, i32 196
  %59 = load double, ptr %58, align 8, !tbaa !174
  %60 = call double @llvm.fabs.f64(double %59)
  %61 = fadd double %56, %60
  %62 = fmul double %52, %61
  store double %62, ptr %12, align 8, !tbaa !150
  %63 = load ptr, ptr %19, align 8, !tbaa !10
  %64 = getelementptr inbounds nuw %struct.CVodeMemRec, ptr %63, i32 0, i32 196
  %65 = load double, ptr %64, align 8, !tbaa !174
  %66 = fcmp olt double %65, 0.000000e+00
  br i1 %66, label %67, label %70

67:                                               ; preds = %48
  %68 = load double, ptr %12, align 8, !tbaa !150
  %69 = fneg double %68
  store double %69, ptr %12, align 8, !tbaa !150
  br label %70

70:                                               ; preds = %67, %48
  %71 = load ptr, ptr %19, align 8, !tbaa !10
  %72 = getelementptr inbounds nuw %struct.CVodeMemRec, ptr %71, i32 0, i32 93
  %73 = load double, ptr %72, align 8, !tbaa !167
  %74 = load ptr, ptr %19, align 8, !tbaa !10
  %75 = getelementptr inbounds nuw %struct.CVodeMemRec, ptr %74, i32 0, i32 196
  %76 = load double, ptr %75, align 8, !tbaa !174
  %77 = fsub double %73, %76
  %78 = load double, ptr %12, align 8, !tbaa !150
  %79 = fsub double %77, %78
  store double %79, ptr %13, align 8, !tbaa !150
  %80 = load ptr, ptr %19, align 8, !tbaa !10
  %81 = getelementptr inbounds nuw %struct.CVodeMemRec, ptr %80, i32 0, i32 93
  %82 = load double, ptr %81, align 8, !tbaa !167
  %83 = load double, ptr %12, align 8, !tbaa !150
  %84 = fadd double %82, %83
  store double %84, ptr %14, align 8, !tbaa !150
  %85 = load double, ptr %7, align 8, !tbaa !150
  %86 = load double, ptr %13, align 8, !tbaa !150
  %87 = fsub double %85, %86
  %88 = load double, ptr %7, align 8, !tbaa !150
  %89 = load double, ptr %14, align 8, !tbaa !150
  %90 = fsub double %88, %89
  %91 = fmul double %87, %90
  %92 = fcmp ogt double %91, 0.000000e+00
  br i1 %92, label %93, label %95

93:                                               ; preds = %70
  %94 = load ptr, ptr %19, align 8, !tbaa !10
  call void (ptr, i32, i32, ptr, ptr, ptr, ...) @cvProcessError(ptr noundef %94, i32 noundef -25, i32 noundef 3913, ptr noundef @__func__.CVodeGetQuadDky, ptr noundef @.str, ptr noundef @.str.62)
  store i32 -25, ptr %5, align 4
  store i32 1, ptr %20, align 4
  br label %206

95:                                               ; preds = %70
  store i32 0, ptr %17, align 4, !tbaa !3
  %96 = load double, ptr %7, align 8, !tbaa !150
  %97 = load ptr, ptr %19, align 8, !tbaa !10
  %98 = getelementptr inbounds nuw %struct.CVodeMemRec, ptr %97, i32 0, i32 93
  %99 = load double, ptr %98, align 8, !tbaa !167
  %100 = fsub double %96, %99
  %101 = load ptr, ptr %19, align 8, !tbaa !10
  %102 = getelementptr inbounds nuw %struct.CVodeMemRec, ptr %101, i32 0, i32 88
  %103 = load double, ptr %102, align 8, !tbaa !265
  %104 = fdiv double %100, %103
  store double %104, ptr %10, align 8, !tbaa !150
  %105 = load ptr, ptr %19, align 8, !tbaa !10
  %106 = getelementptr inbounds nuw %struct.CVodeMemRec, ptr %105, i32 0, i32 82
  %107 = load i32, ptr %106, align 8, !tbaa !169
  store i32 %107, ptr %16, align 4, !tbaa !3
  br label %108

108:                                              ; preds = %176, %95
  %109 = load i32, ptr %16, align 4, !tbaa !3
  %110 = load i32, ptr %8, align 4, !tbaa !3
  %111 = icmp sge i32 %109, %110
  br i1 %111, label %112, label %179

112:                                              ; preds = %108
  %113 = load ptr, ptr %19, align 8, !tbaa !10
  %114 = getelementptr inbounds nuw %struct.CVodeMemRec, ptr %113, i32 0, i32 244
  %115 = load ptr, ptr %114, align 8, !tbaa !164
  %116 = load i32, ptr %17, align 4, !tbaa !3
  %117 = sext i32 %116 to i64
  %118 = getelementptr inbounds double, ptr %115, i64 %117
  store double 1.000000e+00, ptr %118, align 8, !tbaa !150
  %119 = load i32, ptr %16, align 4, !tbaa !3
  store i32 %119, ptr %15, align 4, !tbaa !3
  br label %120

120:                                              ; preds = %138, %112
  %121 = load i32, ptr %15, align 4, !tbaa !3
  %122 = load i32, ptr %16, align 4, !tbaa !3
  %123 = load i32, ptr %8, align 4, !tbaa !3
  %124 = sub nsw i32 %122, %123
  %125 = add nsw i32 %124, 1
  %126 = icmp sge i32 %121, %125
  br i1 %126, label %127, label %141

127:                                              ; preds = %120
  %128 = load i32, ptr %15, align 4, !tbaa !3
  %129 = sitofp i32 %128 to double
  %130 = load ptr, ptr %19, align 8, !tbaa !10
  %131 = getelementptr inbounds nuw %struct.CVodeMemRec, ptr %130, i32 0, i32 244
  %132 = load ptr, ptr %131, align 8, !tbaa !164
  %133 = load i32, ptr %17, align 4, !tbaa !3
  %134 = sext i32 %133 to i64
  %135 = getelementptr inbounds double, ptr %132, i64 %134
  %136 = load double, ptr %135, align 8, !tbaa !150
  %137 = fmul double %136, %129
  store double %137, ptr %135, align 8, !tbaa !150
  br label %138

138:                                              ; preds = %127
  %139 = load i32, ptr %15, align 4, !tbaa !3
  %140 = add nsw i32 %139, -1
  store i32 %140, ptr %15, align 4, !tbaa !3
  br label %120

141:                                              ; preds = %120
  store i32 0, ptr %15, align 4, !tbaa !3
  br label %142

142:                                              ; preds = %158, %141
  %143 = load i32, ptr %15, align 4, !tbaa !3
  %144 = load i32, ptr %16, align 4, !tbaa !3
  %145 = load i32, ptr %8, align 4, !tbaa !3
  %146 = sub nsw i32 %144, %145
  %147 = icmp slt i32 %143, %146
  br i1 %147, label %148, label %161

148:                                              ; preds = %142
  %149 = load double, ptr %10, align 8, !tbaa !150
  %150 = load ptr, ptr %19, align 8, !tbaa !10
  %151 = getelementptr inbounds nuw %struct.CVodeMemRec, ptr %150, i32 0, i32 244
  %152 = load ptr, ptr %151, align 8, !tbaa !164
  %153 = load i32, ptr %17, align 4, !tbaa !3
  %154 = sext i32 %153 to i64
  %155 = getelementptr inbounds double, ptr %152, i64 %154
  %156 = load double, ptr %155, align 8, !tbaa !150
  %157 = fmul double %156, %149
  store double %157, ptr %155, align 8, !tbaa !150
  br label %158

158:                                              ; preds = %148
  %159 = load i32, ptr %15, align 4, !tbaa !3
  %160 = add nsw i32 %159, 1
  store i32 %160, ptr %15, align 4, !tbaa !3
  br label %142

161:                                              ; preds = %142
  %162 = load ptr, ptr %19, align 8, !tbaa !10
  %163 = getelementptr inbounds nuw %struct.CVodeMemRec, ptr %162, i32 0, i32 61
  %164 = load i32, ptr %16, align 4, !tbaa !3
  %165 = sext i32 %164 to i64
  %166 = getelementptr inbounds [13 x ptr], ptr %163, i64 0, i64 %165
  %167 = load ptr, ptr %166, align 8, !tbaa !151
  %168 = load ptr, ptr %19, align 8, !tbaa !10
  %169 = getelementptr inbounds nuw %struct.CVodeMemRec, ptr %168, i32 0, i32 245
  %170 = load ptr, ptr %169, align 8, !tbaa !165
  %171 = load i32, ptr %17, align 4, !tbaa !3
  %172 = sext i32 %171 to i64
  %173 = getelementptr inbounds ptr, ptr %170, i64 %172
  store ptr %167, ptr %173, align 8, !tbaa !151
  %174 = load i32, ptr %17, align 4, !tbaa !3
  %175 = add nsw i32 %174, 1
  store i32 %175, ptr %17, align 4, !tbaa !3
  br label %176

176:                                              ; preds = %161
  %177 = load i32, ptr %16, align 4, !tbaa !3
  %178 = add nsw i32 %177, -1
  store i32 %178, ptr %16, align 4, !tbaa !3
  br label %108

179:                                              ; preds = %108
  %180 = load i32, ptr %17, align 4, !tbaa !3
  %181 = load ptr, ptr %19, align 8, !tbaa !10
  %182 = getelementptr inbounds nuw %struct.CVodeMemRec, ptr %181, i32 0, i32 244
  %183 = load ptr, ptr %182, align 8, !tbaa !164
  %184 = load ptr, ptr %19, align 8, !tbaa !10
  %185 = getelementptr inbounds nuw %struct.CVodeMemRec, ptr %184, i32 0, i32 245
  %186 = load ptr, ptr %185, align 8, !tbaa !165
  %187 = load ptr, ptr %9, align 8, !tbaa !151
  %188 = call i32 @N_VLinearCombination(i32 noundef %180, ptr noundef %183, ptr noundef %186, ptr noundef %187)
  store i32 %188, ptr %18, align 4, !tbaa !3
  %189 = load i32, ptr %18, align 4, !tbaa !3
  %190 = icmp ne i32 %189, 0
  br i1 %190, label %191, label %192

191:                                              ; preds = %179
  store i32 -28, ptr %5, align 4
  store i32 1, ptr %20, align 4
  br label %206

192:                                              ; preds = %179
  %193 = load i32, ptr %8, align 4, !tbaa !3
  %194 = icmp eq i32 %193, 0
  br i1 %194, label %195, label %196

195:                                              ; preds = %192
  store i32 0, ptr %5, align 4
  store i32 1, ptr %20, align 4
  br label %206

196:                                              ; preds = %192
  %197 = load ptr, ptr %19, align 8, !tbaa !10
  %198 = getelementptr inbounds nuw %struct.CVodeMemRec, ptr %197, i32 0, i32 88
  %199 = load double, ptr %198, align 8, !tbaa !265
  %200 = load i32, ptr %8, align 4, !tbaa !3
  %201 = sub nsw i32 0, %200
  %202 = call double @SUNRpowerI(double noundef %199, i32 noundef %201)
  store double %202, ptr %11, align 8, !tbaa !150
  %203 = load double, ptr %11, align 8, !tbaa !150
  %204 = load ptr, ptr %9, align 8, !tbaa !151
  %205 = load ptr, ptr %9, align 8, !tbaa !151
  call void @N_VScale(double noundef %203, ptr noundef %204, ptr noundef %205)
  store i32 0, ptr %5, align 4
  store i32 1, ptr %20, align 4
  br label %206

206:                                              ; preds = %196, %195, %191, %93, %46, %35, %30, %23
  call void @llvm.lifetime.end.p0(i64 8, ptr %19) #10
  call void @llvm.lifetime.end.p0(i64 4, ptr %18) #10
  call void @llvm.lifetime.end.p0(i64 4, ptr %17) #10
  call void @llvm.lifetime.end.p0(i64 4, ptr %16) #10
  call void @llvm.lifetime.end.p0(i64 4, ptr %15) #10
  call void @llvm.lifetime.end.p0(i64 8, ptr %14) #10
  call void @llvm.lifetime.end.p0(i64 8, ptr %13) #10
  call void @llvm.lifetime.end.p0(i64 8, ptr %12) #10
  call void @llvm.lifetime.end.p0(i64 8, ptr %11) #10
  call void @llvm.lifetime.end.p0(i64 8, ptr %10) #10
  %207 = load i32, ptr %5, align 4
  ret i32 %207
}