; Function Attrs: nounwind uwtable
define range(i32 -30, 1) i32 @CVodeGetQuadDky(ptr noundef captures(address_is_null) %0, double noundef %1, i32 noundef %2, ptr noundef %3) local_unnamed_addr #0 {
  %5 = icmp eq ptr %0, null
  br i1 %5, label %6, label %7

6:                                                ; preds = %4
  tail call void (ptr, i32, i32, ptr, ptr, ptr, ...) @cvProcessError(ptr noundef null, i32 noundef -21, i32 noundef 3875, ptr noundef nonnull @__func__.CVodeGetQuadDky, ptr noundef nonnull @.str, ptr noundef nonnull @.str.4)
  br label %79

7:                                                ; preds = %4
  %8 = getelementptr inbounds nuw i8, ptr %0, i64 92
  %9 = load i32, ptr %8, align 4, !tbaa !148
  %.not = icmp eq i32 %9, 1
  br i1 %.not, label %11, label %10

10:                                               ; preds = %7
  tail call void (ptr, i32, i32, ptr, ptr, ptr, ...) @cvProcessError(ptr noundef nonnull %0, i32 noundef -30, i32 noundef 3884, ptr noundef nonnull @__func__.CVodeGetQuadDky, ptr noundef nonnull @.str, ptr noundef nonnull @.str.14)
  br label %79

11:                                               ; preds = %7
  %12 = icmp eq ptr %3, null
  br i1 %12, label %13, label %14

13:                                               ; preds = %11
  tail call void (ptr, i32, i32, ptr, ptr, ptr, ...) @cvProcessError(ptr noundef nonnull %0, i32 noundef -26, i32 noundef 3892, ptr noundef nonnull @__func__.CVodeGetQuadDky, ptr noundef nonnull @.str, ptr noundef nonnull @.str.60)
  br label %79

14:                                               ; preds = %11
  %15 = icmp slt i32 %2, 0
  br i1 %15, label %20, label %16

16:                                               ; preds = %14
  %17 = getelementptr inbounds nuw i8, ptr %0, i64 960
  %18 = load i32, ptr %17, align 8, !tbaa !108
  %19 = icmp sgt i32 %2, %18
  br i1 %19, label %20, label %21

20:                                               ; preds = %16, %14
  tail call void (ptr, i32, i32, ptr, ptr, ptr, ...) @cvProcessError(ptr noundef nonnull %0, i32 noundef -24, i32 noundef 3900, ptr noundef nonnull @__func__.CVodeGetQuadDky, ptr noundef nonnull @.str, ptr noundef nonnull @.str.61)
  br label %79

21:                                               ; preds = %16
  %22 = getelementptr inbounds nuw i8, ptr %0, i64 8
  %23 = load double, ptr %22, align 8, !tbaa !21
  %24 = fmul double %23, 1.000000e+02
  %25 = getelementptr inbounds nuw i8, ptr %0, i64 1032
  %26 = load double, ptr %25, align 8, !tbaa !106
  %27 = tail call double @llvm.fabs.f64(double %26)
  %28 = getelementptr inbounds nuw i8, ptr %0, i64 2064
  %29 = load double, ptr %28, align 8, !tbaa !113
  %30 = tail call double @llvm.fabs.f64(double %29)
  %31 = fadd double %27, %30
  %32 = fmul double %24, %31
  %33 = fcmp olt double %29, 0.000000e+00
  %34 = fneg double %32
  %.065 = select i1 %33, double %34, double %32
  %35 = fsub double %26, %29
  %36 = fsub double %35, %.065
  %37 = fadd double %26, %.065
  %38 = fsub double %1, %36
  %39 = fsub double %1, %37
  %40 = fmul double %38, %39
  %41 = fcmp ogt double %40, 0.000000e+00
  br i1 %41, label %42, label %.lr.ph86

42:                                               ; preds = %21
  tail call void (ptr, i32, i32, ptr, ptr, ptr, ...) @cvProcessError(ptr noundef nonnull %0, i32 noundef -25, i32 noundef 3913, ptr noundef nonnull @__func__.CVodeGetQuadDky, ptr noundef nonnull @.str, ptr noundef nonnull @.str.62)
  br label %79

.lr.ph86:                                         ; preds = %21
  %43 = fsub double %1, %26
  %44 = getelementptr inbounds nuw i8, ptr %0, i64 992
  %45 = load double, ptr %44, align 8, !tbaa !233
  %46 = fdiv double %43, %45
  %47 = getelementptr inbounds nuw i8, ptr %0, i64 2640
  %48 = load ptr, ptr %47, align 8, !tbaa !103
  %49 = getelementptr inbounds nuw i8, ptr %0, i64 512
  %50 = getelementptr inbounds nuw i8, ptr %0, i64 2648
  %51 = load ptr, ptr %50, align 8, !tbaa !104
  %52 = sub nsw i32 %18, %2
  %53 = add nuw i32 %18, 1
  %54 = sub i32 %53, %2
  %wide.trip.count = zext i32 %54 to i64
  %.not74.not75.not = icmp eq i32 %2, 0
  br label %55

55:                                               ; preds = %.lr.ph86, %66
  %indvars.iv90 = phi i64 [ 0, %.lr.ph86 ], [ %indvars.iv.next91, %66 ]
  %indvars.iv = phi i32 [ %52, %.lr.ph86 ], [ %indvars.iv.next, %66 ]
  %.06783 = phi i32 [ %18, %.lr.ph86 ], [ %71, %66 ]
  %56 = getelementptr inbounds nuw double, ptr %48, i64 %indvars.iv90
  store double 1.000000e+00, ptr %56, align 8, !tbaa !69
  %57 = sub nsw i32 %.06783, %2
  br i1 %.not74.not75.not, label %.preheader, label %.lr.ph

..preheader_crit_edge:                            ; preds = %.lr.ph
  store double %61, ptr %56, align 8, !tbaa !69
  br label %.preheader

.preheader:                                       ; preds = %..preheader_crit_edge, %55
  %.promoted80 = phi double [ %61, %..preheader_crit_edge ], [ 1.000000e+00, %55 ]
  %58 = icmp sgt i32 %57, 0
  br i1 %58, label %.lr.ph79, label %66

.lr.ph:                                           ; preds = %55, %.lr.ph
  %59 = phi double [ %61, %.lr.ph ], [ 1.000000e+00, %55 ]
  %.06876 = phi i32 [ %62, %.lr.ph ], [ %.06783, %55 ]
  %60 = sitofp i32 %.06876 to double
  %61 = fmul double %59, %60
  %62 = add nsw i32 %.06876, -1
  %.not74.not = icmp sgt i32 %62, %57
  br i1 %.not74.not, label %.lr.ph, label %..preheader_crit_edge

.lr.ph79:                                         ; preds = %.preheader, %.lr.ph79
  %63 = phi double [ %64, %.lr.ph79 ], [ %.promoted80, %.preheader ]
  %.178 = phi i32 [ %65, %.lr.ph79 ], [ 0, %.preheader ]
  %64 = fmul double %46, %63
  %65 = add nuw nsw i32 %.178, 1
  %exitcond.not = icmp eq i32 %65, %indvars.iv
  br i1 %exitcond.not, label %._crit_edge, label %.lr.ph79

._crit_edge:                                      ; preds = %.lr.ph79
  store double %64, ptr %56, align 8, !tbaa !69
  br label %66

66:                                               ; preds = %._crit_edge, %.preheader
  %67 = zext nneg i32 %.06783 to i64
  %68 = getelementptr inbounds nuw [13 x ptr], ptr %49, i64 0, i64 %67
  %69 = load ptr, ptr %68, align 8, !tbaa !65
  %70 = getelementptr inbounds nuw ptr, ptr %51, i64 %indvars.iv90
  store ptr %69, ptr %70, align 8, !tbaa !65
  %indvars.iv.next91 = add nuw nsw i64 %indvars.iv90, 1
  %71 = add nsw i32 %.06783, -1
  %indvars.iv.next = add i32 %indvars.iv, -1
  %exitcond93.not = icmp eq i64 %indvars.iv.next91, %wide.trip.count
  br i1 %exitcond93.not, label %._crit_edge87, label %55

._crit_edge87:                                    ; preds = %66
  %72 = tail call i32 @N_VLinearCombination(i32 noundef %54, ptr noundef nonnull %48, ptr noundef nonnull %51, ptr noundef nonnull %3) #13
  %.not73 = icmp eq i32 %72, 0
  br i1 %.not73, label %73, label %79

73:                                               ; preds = %._crit_edge87
  %74 = icmp eq i32 %2, 0
  br i1 %74, label %79, label %75

75:                                               ; preds = %73
  %76 = load double, ptr %44, align 8, !tbaa !233
  %77 = sub nsw i32 0, %2
  %78 = tail call double @SUNRpowerI(double noundef %76, i32 noundef %77) #13
  tail call void @N_VScale(double noundef %78, ptr noundef nonnull %3, ptr noundef nonnull %3) #13
  br label %79

79:                                               ; preds = %73, %._crit_edge87, %75, %42, %20, %13, %10, %6
  %.0 = phi i32 [ -21, %6 ], [ -30, %10 ], [ -26, %13 ], [ -24, %20 ], [ -25, %42 ], [ 0, %75 ], [ -28, %._crit_edge87 ], [ 0, %73 ]
  ret i32 %.0
}